; Function Attrs: nounwind uwtable
define ptr @l___private_Lean_Compiler_IR_FreeVars_0__Lean_IR_FreeIndices_collectAlts(ptr noundef %0, ptr noundef readonly captures(none) %1, ptr noundef %2, ptr noundef %3) local_unnamed_addr #0 {
  tail call void @lean_inc_heartbeat() #3
  %5 = tail call noalias ptr @mi_malloc_small(i64 noundef 32) #3
  %6 = icmp eq ptr %5, null
  br i1 %6, label %7, label %lean_alloc_closure.exit

7:                                                ; preds = %4
  tail call void @lean_internal_panic_out_of_memory() #4
  unreachable

lean_alloc_closure.exit:                          ; preds = %4
  %8 = getelementptr inbounds nuw i8, ptr %5, i64 4
  store i32 1, ptr %5, align 4, !tbaa !4
  store i32 -184549344, ptr %8, align 4
  %9 = getelementptr inbounds nuw i8, ptr %5, i64 8
  store ptr @l___private_Lean_Compiler_IR_FreeVars_0__Lean_IR_FreeIndices_collectAlts___lambda__1___boxed, ptr %9, align 8, !tbaa !13
  %10 = getelementptr inbounds nuw i8, ptr %5, i64 16
  store i16 4, ptr %10, align 8, !tbaa !15
  %11 = getelementptr inbounds nuw i8, ptr %5, i64 18
  store i16 1, ptr %11, align 2, !tbaa !15
  %12 = getelementptr inbounds nuw i8, ptr %5, i64 24
  store ptr %0, ptr %12, align 8, !tbaa !13
  %13 = getelementptr i8, ptr %1, i64 8
  %.val.i = load i64, ptr %13, align 8, !tbaa !17
  %.mask.i = and i64 %.val.i, 9223372036854775807
  %.not.i = icmp eq i64 %.mask.i, 0
  br i1 %.not.i, label %lean_dec.exit29.i, label %lean_dec.exit.i

lean_dec.exit29.i:                                ; preds = %lean_alloc_closure.exit
  %14 = ptrtoint ptr %2 to i64
  %15 = and i64 %14, 1
  %.not45.i = icmp eq i64 %15, 0
  br i1 %.not45.i, label %16, label %lean_dec.exit28.i

16:                                               ; preds = %lean_dec.exit29.i
  %17 = load i32, ptr %2, align 4, !tbaa !4
  %18 = icmp sgt i32 %17, 1
  br i1 %18, label %19, label %21, !prof !9

19:                                               ; preds = %16
  %20 = add nsw i32 %17, -1
  store i32 %20, ptr %2, align 4, !tbaa !4
  br label %lean_dec.exit28.i

21:                                               ; preds = %16
  %.not.i30.i = icmp eq i32 %17, 0
  br i1 %.not.i30.i, label %lean_dec.exit28.i, label %22

22:                                               ; preds = %21
  tail call void @lean_dec_ref_cold(ptr noundef nonnull %2) #3
  br label %lean_dec.exit28.i

lean_dec.exit28.i:                                ; preds = %22, %21, %19, %lean_dec.exit29.i
  %23 = ptrtoint ptr %5 to i64
  %24 = and i64 %23, 1
  %.not46.i = icmp eq i64 %24, 0
  br i1 %.not46.i, label %25, label %l___private_Lean_Compiler_IR_FreeVars_0__Lean_IR_FreeIndices_collectArray___rarg.exit

25:                                               ; preds = %lean_dec.exit28.i
  %26 = load i32, ptr %5, align 4, !tbaa !4
  %27 = icmp sgt i32 %26, 1
  br i1 %27, label %28, label %30, !prof !9

28:                                               ; preds = %25
  %29 = add nsw i32 %26, -1
  store i32 %29, ptr %5, align 4, !tbaa !4
  br label %l___private_Lean_Compiler_IR_FreeVars_0__Lean_IR_FreeIndices_collectArray___rarg.exit

30:                                               ; preds = %25
  %.not.i32.i = icmp eq i32 %26, 0
  br i1 %.not.i32.i, label %l___private_Lean_Compiler_IR_FreeVars_0__Lean_IR_FreeIndices_collectArray___rarg.exit, label %31

31:                                               ; preds = %30
  tail call void @lean_dec_ref_cold(ptr noundef nonnull %5) #3
  br label %l___private_Lean_Compiler_IR_FreeVars_0__Lean_IR_FreeIndices_collectArray___rarg.exit

lean_dec.exit.i:                                  ; preds = %lean_alloc_closure.exit
  %32 = tail call ptr @l_Array_foldlMUnsafe_fold___at___private_Lean_Compiler_IR_FreeVars_0__Lean_IR_FreeIndices_collectArray___spec__1___rarg(ptr noundef nonnull %5, ptr noundef %2, ptr noundef nonnull readonly %1, i64 noundef 0, i64 noundef %.mask.i, ptr noundef %3)
  br label %l___private_Lean_Compiler_IR_FreeVars_0__Lean_IR_FreeIndices_collectArray___rarg.exit

l___private_Lean_Compiler_IR_FreeVars_0__Lean_IR_FreeIndices_collectArray___rarg.exit: ; preds = %lean_dec.exit28.i, %28, %30, %31, %lean_dec.exit.i
  %.0.i = phi ptr [ %32, %lean_dec.exit.i ], [ %3, %31 ], [ %3, %30 ], [ %3, %28 ], [ %3, %lean_dec.exit28.i ]
  ret ptr %.0.i
}